; ModuleID = '28/1610.c'
source_filename = "28/1610.c"
target datalayout = "e-m:e-p270:32:32-p271:32:32-p272:64:64-i64:64-f80:128-n8:16:32:64-S128"
target triple = "x86_64-pc-linux-gnu"

@.str = private unnamed_addr constant [4 x i8] c"%d,\00", align 1
@.str.1 = private unnamed_addr constant [3 x i8] c"%d\00", align 1

; Function Attrs: noinline nounwind uwtable
define dso_local i32 @main() #0 {
  %1 = alloca i32, align 4
  %2 = alloca [3000 x i8], align 16
  %3 = alloca i32, align 4
  %4 = alloca i32, align 4
  store i32 0, i32* %1, align 4
  %5 = getelementptr inbounds [3000 x i8], [3000 x i8]* %2, i64 0, i64 0
  %6 = call i32 (i8*, ...) bitcast (i32 (...)* @gets to i32 (i8*, ...)*)(i8* %5)
  store i32 1, i32* %3, align 4
  store i32 1, i32* %4, align 4
  br label %7

7:                                                ; preds = %67, %0
  %8 = load i32, i32* %4, align 4
  %9 = sext i32 %8 to i64
  %10 = getelementptr inbounds [3000 x i8], [3000 x i8]* %2, i64 0, i64 0
  %11 = call i64 @strlen(i8* %10) #3
  %12 = icmp ule i64 %9, %11
  br i1 %12, label %13, label %70

13:                                               ; preds = %7
  %14 = load i32, i32* %4, align 4
  %15 = sext i32 %14 to i64
  %16 = getelementptr inbounds [3000 x i8], [3000 x i8]* %2, i64 0, i64 %15
  %17 = load i8, i8* %16, align 1
  %18 = sext i8 %17 to i32
  %19 = icmp ne i32 %18, 32
  br i1 %19, label %20, label %30

20:                                               ; preds = %13
  %21 = load i32, i32* %4, align 4
  %22 = sext i32 %21 to i64
  %23 = getelementptr inbounds [3000 x i8], [3000 x i8]* %2, i64 0, i64 %22
  %24 = load i8, i8* %23, align 1
  %25 = sext i8 %24 to i32
  %26 = icmp ne i32 %25, 0
  br i1 %26, label %27, label %30

27:                                               ; preds = %20
  %28 = load i32, i32* %3, align 4
  %29 = add nsw i32 %28, 1
  store i32 %29, i32* %3, align 4
  br label %30

30:                                               ; preds = %27, %20, %13
  %31 = load i32, i32* %4, align 4
  %32 = sext i32 %31 to i64
  %33 = getelementptr inbounds [3000 x i8], [3000 x i8]* %2, i64 0, i64 %32
  %34 = load i8, i8* %33, align 1
  %35 = sext i8 %34 to i32
  %36 = icmp eq i32 %35, 32
  br i1 %36, label %37, label %48

37:                                               ; preds = %30
  %38 = load i32, i32* %4, align 4
  %39 = sub nsw i32 %38, 1
  %40 = sext i32 %39 to i64
  %41 = getelementptr inbounds [3000 x i8], [3000 x i8]* %2, i64 0, i64 %40
  %42 = load i8, i8* %41, align 1
  %43 = sext i8 %42 to i32
  %44 = icmp ne i32 %43, 32
  br i1 %44, label %45, label %48

45:                                               ; preds = %37
  %46 = load i32, i32* %3, align 4
  %47 = call i32 (i8*, ...) @printf(i8* getelementptr inbounds ([4 x i8], [4 x i8]* @.str, i64 0, i64 0), i32 %46)
  store i32 0, i32* %3, align 4
  br label %48

48:                                               ; preds = %45, %37, %30
  %49 = load i32, i32* %4, align 4
  %50 = sext i32 %49 to i64
  %51 = getelementptr inbounds [3000 x i8], [3000 x i8]* %2, i64 0, i64 %50
  %52 = load i8, i8* %51, align 1
  %53 = sext i8 %52 to i32
  %54 = icmp eq i32 %53, 0
  br i1 %54, label %55, label %66

55:                                               ; preds = %48
  %56 = load i32, i32* %4, align 4
  %57 = sub nsw i32 %56, 1
  %58 = sext i32 %57 to i64
  %59 = getelementptr inbounds [3000 x i8], [3000 x i8]* %2, i64 0, i64 %58
  %60 = load i8, i8* %59, align 1
  %61 = sext i8 %60 to i32
  %62 = icmp ne i32 %61, 32
  br i1 %62, label %63, label %66

63:                                               ; preds = %55
  %64 = load i32, i32* %3, align 4
  %65 = call i32 (i8*, ...) @printf(i8* getelementptr inbounds ([3 x i8], [3 x i8]* @.str.1, i64 0, i64 0), i32 %64)
  br label %66

66:                                               ; preds = %63, %55, %48
  br label %67

67:                                               ; preds = %66
  %68 = load i32, i32* %4, align 4
  %69 = add nsw i32 %68, 1
  store i32 %69, i32* %4, align 4
  br label %7

70:                                               ; preds = %7
  ret i32 0
}

declare dso_local i32 @gets(...) #1

; Function Attrs: nounwind readonly
declare dso_local i64 @strlen(i8*) #2

declare dso_local i32 @printf(i8*, ...) #1


!llvm.module.flags = !{!0}
!llvm.ident = !{!1}

!0 = !{i32 1, !"wchar_size", i32 4}
!1 = !{!"clang version 10.0.0-4ubuntu1 "}
