; ModuleID = 'source-C-CXX/27/1610.c'
source_filename = "source-C-CXX/27/1610.c"
target datalayout = "e-m:e-p270:32:32-p271:32:32-p272:64:64-i64:64-f80:128-n8:16:32:64-S128"
target triple = "x86_64-pc-linux-gnu"

@.str = private unnamed_addr constant [4 x i8] c"%d,\00", align 1
@.str.1 = private unnamed_addr constant [3 x i8] c"%d\00", align 1

; Function Attrs: nounwind sspstrong uwtable
define dso_local i32 @main() local_unnamed_addr #0 {
  %1 = alloca [3000 x i8], align 16
  %2 = getelementptr inbounds [3000 x i8], [3000 x i8]* %1, i64 0, i64 0
  call void @llvm.lifetime.start.p0i8(i64 3000, i8* nonnull %2) #5
  %3 = call i32 (i8*, ...) bitcast (i32 (...)* @gets to i32 (i8*, ...)*)(i8* nonnull %2) #5
  %4 = load i8, i8* %2, align 16
  %5 = icmp eq i8 %4, 0
  br i1 %5, label %40, label %6

6:                                                ; preds = %0, %35
  %7 = phi i64 [ %37, %35 ], [ 1, %0 ]
  %8 = phi i32 [ %36, %35 ], [ 1, %0 ]
  %9 = getelementptr inbounds [3000 x i8], [3000 x i8]* %1, i64 0, i64 %7
  %10 = load i8, i8* %9, align 1, !tbaa !5
  switch i8 %10, label %11 [
    i8 32, label %13
    i8 0, label %13
  ]

11:                                               ; preds = %6
  %12 = add nsw i32 %8, 1
  br label %13

13:                                               ; preds = %6, %6, %11
  %14 = phi i32 [ %12, %11 ], [ %8, %6 ], [ %8, %6 ]
  %15 = icmp eq i8 %10, 32
  br i1 %15, label %16, label %24

16:                                               ; preds = %13
  %17 = add nsw i64 %7, -1
  %18 = getelementptr inbounds [3000 x i8], [3000 x i8]* %1, i64 0, i64 %17
  %19 = load i8, i8* %18, align 1, !tbaa !5
  %20 = icmp eq i8 %19, 32
  br i1 %20, label %35, label %21

21:                                               ; preds = %16
  %22 = call i32 (i8*, ...) @printf(i8* nonnull dereferenceable(1) getelementptr inbounds ([4 x i8], [4 x i8]* @.str, i64 0, i64 0), i32 %14)
  %23 = load i8, i8* %9, align 1, !tbaa !5
  br label %24

24:                                               ; preds = %21, %13
  %25 = phi i8 [ %23, %21 ], [ %10, %13 ]
  %26 = phi i32 [ 0, %21 ], [ %14, %13 ]
  %27 = icmp eq i8 %25, 0
  br i1 %27, label %28, label %35

28:                                               ; preds = %24
  %29 = add nsw i64 %7, -1
  %30 = getelementptr inbounds [3000 x i8], [3000 x i8]* %1, i64 0, i64 %29
  %31 = load i8, i8* %30, align 1, !tbaa !5
  %32 = icmp eq i8 %31, 32
  br i1 %32, label %35, label %33

33:                                               ; preds = %28
  %34 = call i32 (i8*, ...) @printf(i8* nonnull dereferenceable(1) getelementptr inbounds ([3 x i8], [3 x i8]* @.str.1, i64 0, i64 0), i32 %26)
  br label %35

35:                                               ; preds = %16, %24, %28, %33
  %36 = phi i32 [ %26, %24 ], [ %26, %28 ], [ %26, %33 ], [ %14, %16 ]
  %37 = add nuw i64 %7, 1
  %38 = call i64 @strlen(i8* noundef nonnull %2) #6
  %39 = icmp ugt i64 %38, %7
  br i1 %39, label %6, label %40, !llvm.loop !8

40:                                               ; preds = %35, %0
  call void @llvm.lifetime.end.p0i8(i64 3000, i8* nonnull %2) #5
  ret i32 0
}

; Function Attrs: argmemonly mustprogress nofree nosync nounwind willreturn
declare void @llvm.lifetime.start.p0i8(i64 immarg, i8* nocapture) #1

declare i32 @gets(...) local_unnamed_addr #2

; Function Attrs: argmemonly mustprogress nofree nounwind readonly willreturn
declare i64 @strlen(i8* nocapture) local_unnamed_addr #3

; Function Attrs: nofree nounwind
declare noundef i32 @printf(i8* nocapture noundef readonly, ...) local_unnamed_addr #4

; Function Attrs: argmemonly mustprogress nofree nosync nounwind willreturn
declare void @llvm.lifetime.end.p0i8(i64 immarg, i8* nocapture) #1


!llvm.module.flags = !{!0, !1, !2, !3}
!llvm.ident = !{!4}

!0 = !{i32 1, !"wchar_size", i32 4}
!1 = !{i32 7, !"PIC Level", i32 2}
!2 = !{i32 7, !"PIE Level", i32 2}
!3 = !{i32 7, !"uwtable", i32 1}
!4 = !{!"clang version 13.0.0"}
!5 = !{!6, !6, i64 0}
!6 = !{!"omnipotent char", !7, i64 0}
!7 = !{!"Simple C/C++ TBAA"}
!8 = distinct !{!8, !9}
!9 = !{!"llvm.loop.mustprogress"}
